; Function Attrs: nounwind uwtable
define internal void @close_event_cb(ptr readnone captures(none) %0, i16 signext %1, ptr noundef %2) #0 {
  %4 = getelementptr inbounds nuw i8, ptr %2, i64 40
  %5 = load ptr, ptr %4, align 8
  %.not.i = icmp eq ptr %5, null
  br i1 %.not.i, label %9, label %6

6:                                                ; preds = %3
  %7 = getelementptr inbounds nuw i8, ptr %2, i64 48
  %8 = load ptr, ptr %7, align 8
  tail call void %5(ptr noundef nonnull %2, ptr noundef %8) #9
  br label %9

9:                                                ; preds = %6, %3
  %10 = getelementptr inbounds nuw i8, ptr %2, i64 56
  %11 = load ptr, ptr %10, align 8
  %.not23.i = icmp eq ptr %11, null
  br i1 %.not23.i, label %25, label %12

12:                                               ; preds = %9
  %13 = load ptr, ptr %2, align 8
  %.not24.i = icmp eq ptr %13, null
  %14 = getelementptr inbounds nuw i8, ptr %2, i64 8
  %15 = load ptr, ptr %14, align 8
  br i1 %.not24.i, label %18, label %16

16:                                               ; preds = %12
  %17 = getelementptr inbounds nuw i8, ptr %13, i64 8
  store ptr %15, ptr %17, align 8
  br label %20

18:                                               ; preds = %12
  %19 = getelementptr inbounds nuw i8, ptr %11, i64 72
  store ptr %15, ptr %19, align 8
  br label %20

20:                                               ; preds = %18, %16
  %21 = load ptr, ptr %2, align 8
  store ptr %21, ptr %15, align 8
  %22 = getelementptr inbounds nuw i8, ptr %11, i64 84
  %23 = load i32, ptr %22, align 4
  %24 = add nsw i32 %23, -1
  store i32 %24, ptr %22, align 4
  br label %25

25:                                               ; preds = %20, %9
  %26 = getelementptr inbounds nuw i8, ptr %2, i64 16
  %27 = load ptr, ptr %26, align 8
  %.not25.i = icmp eq ptr %27, null
  br i1 %.not25.i, label %29, label %28

28:                                               ; preds = %25
  tail call void @bufferevent_free(ptr noundef nonnull %27) #9
  br label %29

29:                                               ; preds = %28, %25
  %30 = getelementptr inbounds nuw i8, ptr %2, i64 64
  %31 = load ptr, ptr %30, align 8
  %.not26.i = icmp eq ptr %31, null
  br i1 %.not26.i, label %evws_connection_free.exit, label %32

32:                                               ; preds = %29
  tail call void @evbuffer_free(ptr noundef nonnull %31) #9
  br label %evws_connection_free.exit

evws_connection_free.exit:                        ; preds = %29, %32
  tail call void @event_mm_free_(ptr noundef nonnull %2) #9
  ret void
}